ARM GAS  C:\Users\Sam\AppData\Local\Temp\ccMepdmr.s 			page 1


   1              		.syntax unified
   2              		.cpu cortex-m3
   3              		.fpu softvfp
   4              		.eabi_attribute 20, 1
   5              		.eabi_attribute 21, 1
   6              		.eabi_attribute 23, 3
   7              		.eabi_attribute 24, 1
   8              		.eabi_attribute 25, 1
   9              		.eabi_attribute 26, 1
  10              		.eabi_attribute 30, 1
  11              		.eabi_attribute 34, 1
  12              		.eabi_attribute 18, 4
  13              		.thumb
  14              		.syntax unified
  15              		.file	"main.c"
  16              		.text
  17              	.Ltext0:
  18              		.cfi_sections	.debug_frame
  19              		.section	.text.writeRegister,"ax",%progbits
  20              		.align	2
  21              		.global	writeRegister
  22              		.thumb
  23              		.thumb_func
  24              		.type	writeRegister, %function
  25              	writeRegister:
  26              	.LFB64:
  27              		.file 1 "main.c"
   1:main.c        **** /* ========================================
   2:main.c        ****  *
   3:main.c        ****  * Copyright YOUR COMPANY, THE YEAR
   4:main.c        ****  * All Rights Reserved
   5:main.c        ****  * UNPUBLISHED, LICENSED SOFTWARE.
   6:main.c        ****  *
   7:main.c        ****  * CONFIDENTIAL AND PROPRIETARY INFORMATION
   8:main.c        ****  * WHICH IS THE PROPERTY OF your company.
   9:main.c        ****  *
  10:main.c        ****  * ========================================
  11:main.c        **** */
  12:main.c        **** #include "project.h"
  13:main.c        **** #include "stdio.h"
  14:main.c        **** 
  15:main.c        **** #define SLAVE_ADDRESS 0b1001000
  16:main.c        **** 
  17:main.c        **** void writeRegister(uint8_t slaveAddress, uint8_t registerAddress, uint8_t value)
  18:main.c        **** {
  28              		.loc 1 18 0
  29              		.cfi_startproc
  30              		@ args = 0, pretend = 0, frame = 0
  31              		@ frame_needed = 0, uses_anonymous_args = 0
  32              	.LVL0:
  33 0000 38B5     		push	{r3, r4, r5, lr}
  34              		.cfi_def_cfa_offset 16
  35              		.cfi_offset 3, -16
  36              		.cfi_offset 4, -12
  37              		.cfi_offset 5, -8
  38              		.cfi_offset 14, -4
  39 0002 0D46     		mov	r5, r1
ARM GAS  C:\Users\Sam\AppData\Local\Temp\ccMepdmr.s 			page 2


  40 0004 1446     		mov	r4, r2
  19:main.c        ****     I2C_MasterSendStart(slaveAddress, I2C_WRITE_XFER_MODE);
  41              		.loc 1 19 0
  42 0006 0021     		movs	r1, #0
  43              	.LVL1:
  44 0008 FFF7FEFF 		bl	I2C_MasterSendStart
  45              	.LVL2:
  20:main.c        ****     I2C_MasterWriteByte(registerAddress);
  46              		.loc 1 20 0
  47 000c 2846     		mov	r0, r5
  48 000e FFF7FEFF 		bl	I2C_MasterWriteByte
  49              	.LVL3:
  21:main.c        ****     I2C_MasterWriteByte(value);
  50              		.loc 1 21 0
  51 0012 2046     		mov	r0, r4
  52 0014 FFF7FEFF 		bl	I2C_MasterWriteByte
  53              	.LVL4:
  22:main.c        ****     I2C_MasterSendStop();
  54              		.loc 1 22 0
  55 0018 FFF7FEFF 		bl	I2C_MasterSendStop
  56              	.LVL5:
  57 001c 38BD     		pop	{r3, r4, r5, pc}
  58              		.cfi_endproc
  59              	.LFE64:
  60              		.size	writeRegister, .-writeRegister
  61 001e 00BF     		.section	.text.readRegister,"ax",%progbits
  62              		.align	2
  63              		.global	readRegister
  64              		.thumb
  65              		.thumb_func
  66              		.type	readRegister, %function
  67              	readRegister:
  68              	.LFB65:
  23:main.c        **** }
  24:main.c        **** 
  25:main.c        **** uint8_t readRegister(uint8_t slaveAddress, uint8_t registerAddress)
  26:main.c        **** {
  69              		.loc 1 26 0
  70              		.cfi_startproc
  71              		@ args = 0, pretend = 0, frame = 0
  72              		@ frame_needed = 0, uses_anonymous_args = 0
  73              	.LVL6:
  74 0000 70B5     		push	{r4, r5, r6, lr}
  75              		.cfi_def_cfa_offset 16
  76              		.cfi_offset 4, -16
  77              		.cfi_offset 5, -12
  78              		.cfi_offset 6, -8
  79              		.cfi_offset 14, -4
  80 0002 0546     		mov	r5, r0
  81 0004 0E46     		mov	r6, r1
  27:main.c        ****     I2C_DisableInt();
  82              		.loc 1 27 0
  83 0006 4FF40044 		mov	r4, #32768
  84 000a 0B4B     		ldr	r3, .L5
  85 000c 1C60     		str	r4, [r3]
  28:main.c        ****     I2C_MasterSendStart(slaveAddress, I2C_WRITE_XFER_MODE);
  86              		.loc 1 28 0
ARM GAS  C:\Users\Sam\AppData\Local\Temp\ccMepdmr.s 			page 3


  87 000e 0021     		movs	r1, #0
  88              	.LVL7:
  89 0010 FFF7FEFF 		bl	I2C_MasterSendStart
  90              	.LVL8:
  29:main.c        ****     I2C_MasterWriteByte(registerAddress);
  91              		.loc 1 29 0
  92 0014 3046     		mov	r0, r6
  93 0016 FFF7FEFF 		bl	I2C_MasterWriteByte
  94              	.LVL9:
  30:main.c        ****     I2C_MasterSendRestart(slaveAddress, I2C_READ_XFER_MODE);
  95              		.loc 1 30 0
  96 001a 0121     		movs	r1, #1
  97 001c 2846     		mov	r0, r5
  98 001e FFF7FEFF 		bl	I2C_MasterSendRestart
  99              	.LVL10:
  31:main.c        ****     uint8_t data = I2C_MasterReadByte(I2C_NAK_DATA);
 100              		.loc 1 31 0
 101 0022 0020     		movs	r0, #0
 102 0024 FFF7FEFF 		bl	I2C_MasterReadByte
 103              	.LVL11:
 104 0028 0546     		mov	r5, r0
 105              	.LVL12:
  32:main.c        ****     I2C_MasterSendStop();
 106              		.loc 1 32 0
 107 002a FFF7FEFF 		bl	I2C_MasterSendStop
 108              	.LVL13:
  33:main.c        ****     I2C_EnableInt();
 109              		.loc 1 33 0
 110 002e 034B     		ldr	r3, .L5+4
 111 0030 1C60     		str	r4, [r3]
  34:main.c        ****     return data;
  35:main.c        **** }
 112              		.loc 1 35 0
 113 0032 2846     		mov	r0, r5
 114 0034 70BD     		pop	{r4, r5, r6, pc}
 115              	.LVL14:
 116              	.L6:
 117 0036 00BF     		.align	2
 118              	.L5:
 119 0038 80E100E0 		.word	-536813184
 120 003c 00E100E0 		.word	-536813312
 121              		.cfi_endproc
 122              	.LFE65:
 123              		.size	readRegister, .-readRegister
 124              		.section	.text.configADC,"ax",%progbits
 125              		.align	2
 126              		.global	configADC
 127              		.thumb
 128              		.thumb_func
 129              		.type	configADC, %function
 130              	configADC:
 131              	.LFB66:
  36:main.c        **** 
  37:main.c        **** void configADC(uint8_t slaveAddress)
  38:main.c        **** {
 132              		.loc 1 38 0
 133              		.cfi_startproc
ARM GAS  C:\Users\Sam\AppData\Local\Temp\ccMepdmr.s 			page 4


 134              		@ args = 0, pretend = 0, frame = 0
 135              		@ frame_needed = 0, uses_anonymous_args = 0
 136              	.LVL15:
 137 0000 10B5     		push	{r4, lr}
 138              		.cfi_def_cfa_offset 8
 139              		.cfi_offset 4, -8
 140              		.cfi_offset 14, -4
 141 0002 0446     		mov	r4, r0
 142              	.LVL16:
  39:main.c        ****     uint8_t commandByte = 0b11011100;
  40:main.c        ****     
  41:main.c        ****     I2C_MasterSendStart(slaveAddress, I2C_WRITE_XFER_MODE);
 143              		.loc 1 41 0
 144 0004 0021     		movs	r1, #0
 145 0006 FFF7FEFF 		bl	I2C_MasterSendStart
 146              	.LVL17:
  42:main.c        ****     I2C_MasterWriteByte(commandByte);
 147              		.loc 1 42 0
 148 000a DC20     		movs	r0, #220
 149 000c FFF7FEFF 		bl	I2C_MasterWriteByte
 150              	.LVL18:
  43:main.c        ****     I2C_MasterSendRestart(slaveAddress, I2C_READ_XFER_MODE);
 151              		.loc 1 43 0
 152 0010 0121     		movs	r1, #1
 153 0012 2046     		mov	r0, r4
 154 0014 FFF7FEFF 		bl	I2C_MasterSendRestart
 155              	.LVL19:
 156 0018 10BD     		pop	{r4, pc}
 157              		.cfi_endproc
 158              	.LFE66:
 159              		.size	configADC, .-configADC
 160 001a 00BF     		.section	.text.readADCData,"ax",%progbits
 161              		.align	2
 162              		.global	readADCData
 163              		.thumb
 164              		.thumb_func
 165              		.type	readADCData, %function
 166              	readADCData:
 167              	.LFB67:
  44:main.c        ****     
  45:main.c        **** }
  46:main.c        **** 
  47:main.c        **** uint16_t readADCData()
  48:main.c        **** {
 168              		.loc 1 48 0
 169              		.cfi_startproc
 170              		@ args = 0, pretend = 0, frame = 0
 171              		@ frame_needed = 0, uses_anonymous_args = 0
 172 0000 38B5     		push	{r3, r4, r5, lr}
 173              		.cfi_def_cfa_offset 16
 174              		.cfi_offset 3, -16
 175              		.cfi_offset 4, -12
 176              		.cfi_offset 5, -8
 177              		.cfi_offset 14, -4
  49:main.c        ****     uint16_t upperByte = I2C_MasterReadByte(I2C_ACK_DATA) & 0x0F;
 178              		.loc 1 49 0
 179 0002 0120     		movs	r0, #1
ARM GAS  C:\Users\Sam\AppData\Local\Temp\ccMepdmr.s 			page 5


 180 0004 FFF7FEFF 		bl	I2C_MasterReadByte
 181              	.LVL20:
 182 0008 00F00F05 		and	r5, r0, #15
 183              	.LVL21:
  50:main.c        ****     uint8_t lowerByte = I2C_MasterReadByte(I2C_NAK_DATA);
 184              		.loc 1 50 0
 185 000c 0020     		movs	r0, #0
 186 000e FFF7FEFF 		bl	I2C_MasterReadByte
 187              	.LVL22:
 188 0012 0446     		mov	r4, r0
 189              	.LVL23:
  51:main.c        ****     I2C_MasterSendStop();
 190              		.loc 1 51 0
 191 0014 FFF7FEFF 		bl	I2C_MasterSendStop
 192              	.LVL24:
  52:main.c        ****     return ((upperByte << 8) + lowerByte);
 193              		.loc 1 52 0
 194 0018 04EB0520 		add	r0, r4, r5, lsl #8
  53:main.c        ****     
  54:main.c        **** }
 195              		.loc 1 54 0
 196 001c 80B2     		uxth	r0, r0
 197 001e 38BD     		pop	{r3, r4, r5, pc}
 198              		.cfi_endproc
 199              	.LFE67:
 200              		.size	readADCData, .-readADCData
 201              		.section	.text.main,"ax",%progbits
 202              		.align	2
 203              		.global	main
 204              		.thumb
 205              		.thumb_func
 206              		.type	main, %function
 207              	main:
 208              	.LFB68:
  55:main.c        **** 
  56:main.c        **** int main(void)
  57:main.c        **** {
 209              		.loc 1 57 0
 210              		.cfi_startproc
 211              		@ args = 0, pretend = 0, frame = 16
 212              		@ frame_needed = 0, uses_anonymous_args = 0
 213 0000 10B5     		push	{r4, lr}
 214              		.cfi_def_cfa_offset 8
 215              		.cfi_offset 4, -8
 216              		.cfi_offset 14, -4
 217 0002 84B0     		sub	sp, sp, #16
 218              		.cfi_def_cfa_offset 24
  58:main.c        ****     CyGlobalIntEnable; /* Enable global interrupts. */
 219              		.loc 1 58 0
 220              		.syntax unified
 221              	@ 58 "main.c" 1
 222 0004 62B6     		CPSIE   i
 223              	@ 0 "" 2
  59:main.c        **** 
  60:main.c        ****     /* Place your initialization/startup code here (e.g. MyInst_Start()) */
  61:main.c        ****     I2C_Start();
 224              		.loc 1 61 0
ARM GAS  C:\Users\Sam\AppData\Local\Temp\ccMepdmr.s 			page 6


 225              		.thumb
 226              		.syntax unified
 227 0006 FFF7FEFF 		bl	I2C_Start
 228              	.LVL25:
  62:main.c        ****     UART_Start();
 229              		.loc 1 62 0
 230 000a FFF7FEFF 		bl	UART_Start
 231              	.LVL26:
 232              	.L12:
  63:main.c        ****     
  64:main.c        ****     uint16_t data;
  65:main.c        ****     char buffer[10];
  66:main.c        **** 
  67:main.c        ****     for(;;)
  68:main.c        ****     {
  69:main.c        ****         /* Place your application code here. */
  70:main.c        ****         configADC(SLAVE_ADDRESS);
 233              		.loc 1 70 0 discriminator 1
 234 000e 4820     		movs	r0, #72
 235 0010 FFF7FEFF 		bl	configADC
 236              	.LVL27:
  71:main.c        ****         data = readADCData();
 237              		.loc 1 71 0 discriminator 1
 238 0014 FFF7FEFF 		bl	readADCData
 239              	.LVL28:
 240 0018 0446     		mov	r4, r0
 241              	.LVL29:
  72:main.c        ****         
  73:main.c        ****         CyDelay(50);
 242              		.loc 1 73 0 discriminator 1
 243 001a 3220     		movs	r0, #50
 244 001c FFF7FEFF 		bl	CyDelay
 245              	.LVL30:
  74:main.c        ****         
  75:main.c        ****         sprintf(buffer, "%d", data);
 246              		.loc 1 75 0 discriminator 1
 247 0020 2246     		mov	r2, r4
 248 0022 0449     		ldr	r1, .L14
 249 0024 01A8     		add	r0, sp, #4
 250 0026 FFF7FEFF 		bl	sprintf
 251              	.LVL31:
  76:main.c        ****         UART_PutString(buffer);
 252              		.loc 1 76 0 discriminator 1
 253 002a 01A8     		add	r0, sp, #4
 254 002c FFF7FEFF 		bl	UART_PutString
 255              	.LVL32:
 256 0030 EDE7     		b	.L12
 257              	.L15:
 258 0032 00BF     		.align	2
 259              	.L14:
 260 0034 00000000 		.word	.LC0
 261              		.cfi_endproc
 262              	.LFE68:
 263              		.size	main, .-main
 264              		.section	.rodata.str1.4,"aMS",%progbits,1
 265              		.align	2
 266              	.LC0:
ARM GAS  C:\Users\Sam\AppData\Local\Temp\ccMepdmr.s 			page 7


 267 0000 256400   		.ascii	"%d\000"
 268              		.text
 269              	.Letext0:
 270              		.file 2 "c:\\program files (x86)\\cypress\\psoc creator\\4.2\\psoc creator\\import\\gnu\\arm\\5.4.
 271              		.file 3 "c:\\program files (x86)\\cypress\\psoc creator\\4.2\\psoc creator\\import\\gnu\\arm\\5.4.
 272              		.file 4 "Generated_Source\\PSoC5/cytypes.h"
 273              		.file 5 "Generated_Source\\PSoC5/I2C.h"
 274              		.file 6 "Generated_Source\\PSoC5/UART.h"
 275              		.file 7 "Generated_Source\\PSoC5/CyLib.h"
 276              		.file 8 "c:\\program files (x86)\\cypress\\psoc creator\\4.2\\psoc creator\\import\\gnu\\arm\\5.4.
 277              		.file 9 "Generated_Source\\PSoC5/core_cm3.h"